Certificate:
    Data:
        Version: 3 (0x2)
        Serial Number: 10 (0xa)
        Signature Algorithm: sha1WithRSAEncryption
        Issuer: C=US, O=Google, OU=Enterprise, CN=Enterprise Subordinate CA
        Validity
            Not Before: Oct 23 02:37:24 2020 GMT
            Not After : Oct 23 02:37:24 2022 GMT
        Subject: C=US, O=Google, OU=Enterprise, CN=client-svc@domain.com
        Subject Public Key Info:
            Public Key Algorithm: rsaEncryption
                RSA Public-Key: (2048 bit)
                Modulus:
                    00:d4:28:c4:25:87:62:0f:2c:35:c0:5d:64:5f:de:
                    aa:23:b3:7b:b4:60:97:c7:76:d4:b9:b3:de:b5:cb:
                    0c:d8:4a:b5:18:fa:02:21:3e:9d:d1:8e:d6:fc:7f:
                    ff:ce:21:5c:d0:c4:9d:33:ff:89:17:ac:bf:33:57:
                    eb:ac:46:4e:80:a8:c5:a1:54:cf:9d:05:8f:52:64:
                    90:bc:9d:d0:41:1b:9c:9b:59:11:6b:0e:e2:66:7d:
                    5a:22:ab:43:7d:84:95:72:2f:20:a0:58:76:bc:ee:
                    8b:3a:93:87:eb:64:c8:25:15:05:53:d4:f4:6e:56:
                    a1:be:31:b6:fe:bd:f8:1f:ea:ca:b5:14:ff:19:f7:
                    01:a7:f2:16:85:93:a4:d2:5c:5b:0b:c2:2b:6a:f5:
                    3e:59:dd:38:b7:01:4f:c8:9f:d4:c9:05:f7:c3:46:
                    7d:41:01:9c:dc:53:77:72:78:de:2b:b2:25:c0:b7:
                    b8:98:10:b4:f1:40:33:14:d8:4b:12:5a:2d:51:9d:
                    3c:93:f2:70:d6:1b:f4:4c:17:c0:5c:d5:6c:b6:e4:
                    10:b1:54:53:67:a5:aa:f0:53:c7:ee:b4:83:00:04:
                    76:7a:76:d4:df:e1:5e:a5:cf:6b:6e:82:af:2e:56:
                    37:ed:fb:cd:cb:04:98:c8:0e:71:db:37:c2:51:39:
                    f3:21
                Exponent: 65537 (0x10001)
        X509v3 extensions:
            X509v3 Key Usage: critical
                Digital Signature
            X509v3 Basic Constraints: 
                CA:FALSE
            X509v3 Extended Key Usage: 
                TLS Web Client Authentication
            X509v3 Subject Key Identifier: 
                AA:A8:EC:B0:C1:27:A2:80:CD:6F:BF:B5:5C:A0:6E:AD:99:6B:DD:E8
            X509v3 Authority Key Identifier: 
                keyid:BF:E1:1C:F0:22:48:8F:FC:3B:CF:5D:D9:ED:AE:88:70:21:DF:DD:86

            Authority Information Access: 
                CA Issuers - URI:http://pki.esodemoapp2.com/ca/tls-ca.cer

            X509v3 CRL Distribution Points: 

                Full Name:
                  URI:http://pki.esodemoapp2.com/ca/tls-ca.crl

            X509v3 Subject Alternative Name: 
                DNS:client-svc.domain.com
    Signature Algorithm: sha1WithRSAEncryption
         66:5b:82:0b:4b:b0:f3:fc:0a:6d:9f:e6:31:c3:49:27:1a:32:
         1a:29:20:58:4e:86:45:2e:2c:92:d4:df:40:44:c4:1e:f9:35:
         a3:cb:f7:6d:ba:b0:59:e4:18:d7:52:08:95:35:d7:84:59:cc:
         92:60:fc:12:90:95:3d:ef:c9:14:12:f1:c8:f5:ae:b2:1a:45:
         2c:d6:4e:f1:43:05:9b:d1:68:6c:b7:b1:be:a5:24:fe:72:b0:
         2c:b9:f7:24:07:3b:eb:e4:53:d1:7a:e5:9e:bd:4e:a2:8e:7b:
         8b:d0:f4:31:e1:c7:43:1f:04:22:14:7e:16:a2:07:85:8c:1d:
         de:98:e5:fa:9b:1c:41:4b:31:a0:43:c3:72:15:8e:60:e9:80:
         16:db:54:61:3b:71:42:c7:bd:31:6c:ff:b6:a3:b9:a2:2f:01:
         3a:23:28:f2:b4:0f:20:6b:f6:49:bb:ec:3a:ec:52:12:31:ee:
         1f:c7:29:d7:6d:a1:28:5a:27:2b:23:a6:5f:e8:5b:51:b7:4e:
         e9:8d:4f:4f:f9:7a:1f:8c:c9:b0:2e:67:7f:7f:16:e0:c4:51:
         e5:f1:ac:60:bb:4d:be:81:a6:7e:aa:e1:01:40:92:47:4b:a3:
         ca:65:be:22:95:5b:a6:bf:db:00:1f:03:75:ee:c3:25:7f:75:
         f2:b9:75:ee
-----BEGIN CERTIFICATE-----
MIIEPjCCAyagAwIBAgIBCjANBgkqhkiG9w0BAQUFADBXMQswCQYDVQQGEwJVUzEP
MA0GA1UECgwGR29vZ2xlMRMwEQYDVQQLDApFbnRlcnByaXNlMSIwIAYDVQQDDBlF
bnRlcnByaXNlIFN1Ym9yZGluYXRlIENBMB4XDTIwMTAyMzAyMzcyNFoXDTIyMTAy
MzAyMzcyNFowUzELMAkGA1UEBhMCVVMxDzANBgNVBAoMBkdvb2dsZTETMBEGA1UE
CwwKRW50ZXJwcmlzZTEeMBwGA1UEAwwVY2xpZW50LXN2Y0Bkb21haW4uY29tMIIB
IjANBgkqhkiG9w0BAQEFAAOCAQ8AMIIBCgKCAQEA1CjEJYdiDyw1wF1kX96qI7N7
tGCXx3bUubPetcsM2Eq1GPoCIT6d0Y7W/H//ziFc0MSdM/+JF6y/M1frrEZOgKjF
oVTPnQWPUmSQvJ3QQRucm1kRaw7iZn1aIqtDfYSVci8goFh2vO6LOpOH62TIJRUF
U9T0blahvjG2/r34H+rKtRT/GfcBp/IWhZOk0lxbC8IravU+Wd04twFPyJ/UyQX3
w0Z9QQGc3FN3cnjeK7IlwLe4mBC08UAzFNhLElotUZ08k/Jw1hv0TBfAXNVstuQQ
sVRTZ6Wq8FPH7rSDAAR2enbU3+Fepc9rboKvLlY37fvNywSYyA5x2zfCUTnzIQID
AQABo4IBFzCCARMwDgYDVR0PAQH/BAQDAgeAMAkGA1UdEwQCMAAwEwYDVR0lBAww
CgYIKwYBBQUHAwIwHQYDVR0OBBYEFKqo7LDBJ6KAzW+/tVygbq2Za93oMB8GA1Ud
IwQYMBaAFL/hHPAiSI/8O89d2e2uiHAh392GMEQGCCsGAQUFBwEBBDgwNjA0Bggr
BgEFBQcwAoYoaHR0cDovL3BraS5lc29kZW1vYXBwMi5jb20vY2EvdGxzLWNhLmNl
cjA5BgNVHR8EMjAwMC6gLKAqhihodHRwOi8vcGtpLmVzb2RlbW9hcHAyLmNvbS9j
YS90bHMtY2EuY3JsMCAGA1UdEQQZMBeCFWNsaWVudC1zdmMuZG9tYWluLmNvbTAN
BgkqhkiG9w0BAQUFAAOCAQEAZluCC0uw8/wKbZ/mMcNJJxoyGikgWE6GRS4sktTf
QETEHvk1o8v3bbqwWeQY11IIlTXXhFnMkmD8EpCVPe/JFBLxyPWushpFLNZO8UMF
m9FobLexvqUk/nKwLLn3JAc76+RT0Xrlnr1Ooo57i9D0MeHHQx8EIhR+FqIHhYwd
3pjl+pscQUsxoEPDchWOYOmAFttUYTtxQse9MWz/tqO5oi8BOiMo8rQPIGv2Sbvs
OuxSEjHuH8cp122hKFonKyOmX+hbUbdO6Y1PT/l6H4zJsC5nf38W4MRR5fGsYLtN
voGmfqrhAUCSR0ujymW+IpVbpr/bAB8Dde7DJX918rl17g==
-----END CERTIFICATE-----
