Certificate:
    Data:
        Version: 3 (0x2)
        Serial Number: 2 (0x2)
        Signature Algorithm: sha1WithRSAEncryption
        Issuer: C=US, O=Google, OU=Enterprise, CN=Enterprise Root CA
        Validity
            Not Before: Apr 25 22:07:15 2020 GMT
            Not After : Apr 25 22:07:15 2030 GMT
        Subject: C=US, O=Google, OU=Enterprise, CN=Enterprise Subordinate CA
        Subject Public Key Info:
            Public Key Algorithm: rsaEncryption
                RSA Public-Key: (2048 bit)
                Modulus:
                    00:d8:55:cc:c6:83:ee:72:79:8f:6d:e6:98:be:d0:
                    bb:9b:0a:8c:a9:2f:c3:44:6b:86:9a:4e:fc:7f:c7:
                    0b:2e:6b:5f:e2:a7:1f:43:04:b9:b7:95:24:10:05:
                    22:1d:a0:c6:4d:d9:24:f0:05:91:54:67:38:4a:1f:
                    e7:c3:19:6c:10:cc:3b:b6:19:25:5b:7c:e0:7b:c7:
                    14:ed:5f:a9:5a:31:a8:91:a6:22:2c:fa:9a:c9:5d:
                    c2:27:b5:69:60:f2:1b:5d:11:aa:79:74:2b:48:08:
                    77:87:9b:cf:98:59:f6:20:de:13:64:5d:84:e3:a1:
                    68:6f:cc:61:aa:36:1c:f4:20:06:aa:1f:0d:7a:f0:
                    b2:bf:23:6f:9d:bd:99:4f:34:1e:0b:68:e8:b9:14:
                    ad:96:d7:47:87:de:f2:9c:af:e2:6a:dc:b3:ca:8b:
                    74:fb:d0:6b:84:8f:fd:08:11:0b:4b:53:03:1b:17:
                    13:df:98:38:f2:91:09:cc:7a:f5:fe:4d:d6:77:3d:
                    95:33:4f:a9:29:22:01:86:22:4c:d6:de:10:d4:b0:
                    0b:84:fe:cb:29:2a:fa:13:1d:c7:d4:ec:da:04:45:
                    bc:82:92:28:2a:59:07:e8:8d:43:f6:53:ac:d6:b4:
                    92:25:4e:19:12:c5:6a:7e:df:b7:8f:7d:92:07:26:
                    4d:99
                Exponent: 65537 (0x10001)
        X509v3 extensions:
            X509v3 Key Usage: critical
                Certificate Sign, CRL Sign
            X509v3 Basic Constraints: critical
                CA:TRUE, pathlen:0
            X509v3 Subject Key Identifier: 
                BF:E1:1C:F0:22:48:8F:FC:3B:CF:5D:D9:ED:AE:88:70:21:DF:DD:86
            X509v3 Authority Key Identifier: 
                keyid:9A:54:D6:19:21:58:3A:46:B6:D4:AE:05:7E:80:70:F4:38:CF:28:0C

            Authority Information Access: 
                CA Issuers - URI:http://pki.esodemoapp2.com/ca/root-ca.cer

            X509v3 CRL Distribution Points: 

                Full Name:
                  URI:http://pki.esodemoapp2.com/ca/root-ca.crl

    Signature Algorithm: sha1WithRSAEncryption
         88:2b:b7:92:1b:17:fb:57:2f:f9:a4:a5:5d:0c:68:03:fe:c1:
         bf:a6:30:60:a8:fe:88:56:87:2f:2d:43:74:9d:4c:d3:f0:d3:
         24:39:8a:da:27:3f:8b:c9:25:32:e7:95:86:3d:e1:5e:01:17:
         11:0a:a7:85:c2:ac:fe:a3:50:5e:b5:da:8e:51:98:28:b9:fd:
         43:b9:7b:df:c9:7d:30:72:9d:58:fc:81:0f:70:59:f3:97:e5:
         39:6f:51:75:d2:23:8b:1a:de:65:95:4c:4c:77:a7:a8:d4:c4:
         b9:dd:2a:db:17:73:48:bd:03:ae:e9:aa:07:06:58:7a:d7:8a:
         a4:cd:cc:76:84:08:4b:23:0e:42:f4:cb:ca:ee:be:54:3f:5e:
         fd:8a:5b:f8:c7:b6:58:7d:6b:0c:ec:32:ef:86:01:bc:74:48:
         10:4c:30:8f:07:98:7a:71:22:88:33:5a:88:84:7c:e9:3e:4a:
         c6:70:6b:4a:2b:f1:5b:89:d8:f0:e0:e3:f6:e4:70:03:57:a8:
         bf:19:72:a4:8e:2a:ce:85:54:24:a2:3d:92:dd:18:e4:88:dc:
         bc:26:f2:68:6c:21:4c:18:94:a2:ea:6f:46:3b:c3:ab:50:0f:
         a8:f6:bf:49:29:89:0b:98:b1:16:0f:93:de:17:b8:42:9d:b1:
         90:63:e0:b0
-----BEGIN CERTIFICATE-----
MIIEDTCCAvWgAwIBAgIBAjANBgkqhkiG9w0BAQUFADBQMQswCQYDVQQGEwJVUzEP
MA0GA1UECgwGR29vZ2xlMRMwEQYDVQQLDApFbnRlcnByaXNlMRswGQYDVQQDDBJF
bnRlcnByaXNlIFJvb3QgQ0EwHhcNMjAwNDI1MjIwNzE1WhcNMzAwNDI1MjIwNzE1
WjBXMQswCQYDVQQGEwJVUzEPMA0GA1UECgwGR29vZ2xlMRMwEQYDVQQLDApFbnRl
cnByaXNlMSIwIAYDVQQDDBlFbnRlcnByaXNlIFN1Ym9yZGluYXRlIENBMIIBIjAN
BgkqhkiG9w0BAQEFAAOCAQ8AMIIBCgKCAQEA2FXMxoPucnmPbeaYvtC7mwqMqS/D
RGuGmk78f8cLLmtf4qcfQwS5t5UkEAUiHaDGTdkk8AWRVGc4Sh/nwxlsEMw7thkl
W3zge8cU7V+pWjGokaYiLPqayV3CJ7VpYPIbXRGqeXQrSAh3h5vPmFn2IN4TZF2E
46Fob8xhqjYc9CAGqh8NevCyvyNvnb2ZTzQeC2jouRStltdHh97ynK/iatyzyot0
+9BrhI/9CBELS1MDGxcT35g48pEJzHr1/k3Wdz2VM0+pKSIBhiJM1t4Q1LALhP7L
KSr6Ex3H1OzaBEW8gpIoKlkH6I1D9lOs1rSSJU4ZEsVqft+3j32SByZNmQIDAQAB
o4HqMIHnMA4GA1UdDwEB/wQEAwIBBjASBgNVHRMBAf8ECDAGAQH/AgEAMB0GA1Ud
DgQWBBS/4RzwIkiP/DvPXdntrohwId/dhjAfBgNVHSMEGDAWgBSaVNYZIVg6RrbU
rgV+gHD0OM8oDDBFBggrBgEFBQcBAQQ5MDcwNQYIKwYBBQUHMAKGKWh0dHA6Ly9w
a2kuZXNvZGVtb2FwcDIuY29tL2NhL3Jvb3QtY2EuY2VyMDoGA1UdHwQzMDEwL6At
oCuGKWh0dHA6Ly9wa2kuZXNvZGVtb2FwcDIuY29tL2NhL3Jvb3QtY2EuY3JsMA0G
CSqGSIb3DQEBBQUAA4IBAQCIK7eSGxf7Vy/5pKVdDGgD/sG/pjBgqP6IVocvLUN0
nUzT8NMkOYraJz+LySUy55WGPeFeARcRCqeFwqz+o1BetdqOUZgouf1DuXvfyX0w
cp1Y/IEPcFnzl+U5b1F10iOLGt5llUxMd6eo1MS53SrbF3NIvQOu6aoHBlh614qk
zcx2hAhLIw5C9MvK7r5UP179ilv4x7ZYfWsM7DLvhgG8dEgQTDCPB5h6cSKIM1qI
hHzpPkrGcGtKK/Fbidjw4OP25HADV6i/GXKkjirOhVQkoj2S3RjkiNy8JvJobCFM
GJSi6m9GO8OrUA+o9r9JKYkLmLEWD5PeF7hCnbGQY+Cw
-----END CERTIFICATE-----
Certificate:
    Data:
        Version: 3 (0x2)
        Serial Number: 1 (0x1)
        Signature Algorithm: sha1WithRSAEncryption
        Issuer: C=US, O=Google, OU=Enterprise, CN=Enterprise Root CA
        Validity
            Not Before: Apr 25 22:04:41 2020 GMT
            Not After : Apr 25 22:04:41 2030 GMT
        Subject: C=US, O=Google, OU=Enterprise, CN=Enterprise Root CA
        Subject Public Key Info:
            Public Key Algorithm: rsaEncryption
                RSA Public-Key: (2048 bit)
                Modulus:
                    00:f1:b9:ab:0c:9e:7f:fa:35:da:57:66:4f:45:9d:
                    61:35:d3:d6:08:50:35:dd:3f:23:7b:42:2a:b5:99:
                    7e:78:74:1c:e8:0b:fb:d9:d6:69:4b:c8:04:c6:7b:
                    df:83:17:d7:20:45:ad:5a:a5:00:25:89:de:1c:52:
                    c6:b3:a3:54:eb:a2:98:af:7f:ec:bf:82:df:7f:ea:
                    65:ce:5f:4c:c4:01:98:30:9f:0e:15:53:a3:57:01:
                    5a:72:cc:c1:62:57:c9:05:3b:5f:25:cd:49:57:76:
                    df:76:48:64:62:4b:a0:69:93:4a:31:b8:d6:41:60:
                    ac:7c:49:40:d8:53:bb:de:28:5d:86:cf:d1:9c:17:
                    93:17:51:0e:55:c5:b5:0f:aa:f1:5c:b8:a1:91:e0:
                    34:45:01:85:10:5a:10:7e:73:65:d6:af:76:7b:89:
                    b6:a9:e4:7c:52:44:52:65:4d:99:c4:ec:67:5e:a3:
                    0c:33:57:cf:e4:d9:b9:91:59:3c:e7:84:9a:c6:6e:
                    75:d1:53:29:01:17:e2:61:b3:6f:41:45:fa:a5:2a:
                    ba:09:a8:bf:0c:67:85:52:f6:3f:89:7d:04:48:c5:
                    89:06:e0:9c:5f:48:eb:8b:de:61:0b:25:05:2f:65:
                    f6:40:0c:c6:fa:d1:d3:eb:32:a2:50:78:8b:41:0e:
                    77:49
                Exponent: 65537 (0x10001)
        X509v3 extensions:
            X509v3 Key Usage: critical
                Certificate Sign, CRL Sign
            X509v3 Basic Constraints: critical
                CA:TRUE
            X509v3 Subject Key Identifier: 
                9A:54:D6:19:21:58:3A:46:B6:D4:AE:05:7E:80:70:F4:38:CF:28:0C
            X509v3 Authority Key Identifier: 
                keyid:9A:54:D6:19:21:58:3A:46:B6:D4:AE:05:7E:80:70:F4:38:CF:28:0C

    Signature Algorithm: sha1WithRSAEncryption
         24:75:92:0e:2e:0a:bb:52:f6:87:52:f7:5f:3d:c4:bc:37:c0:
         45:30:64:06:93:24:4f:29:50:43:fc:96:63:5e:02:36:ca:3b:
         72:96:4c:9c:49:87:86:9b:1c:64:75:f3:7c:52:0a:42:04:17:
         85:25:78:51:e1:75:a9:2b:15:6a:ee:67:df:b2:a9:7f:dd:d7:
         57:f8:bc:cc:bd:f7:10:09:bf:d4:7c:2b:30:27:d5:74:12:f1:
         f2:90:23:e8:69:ae:8a:03:c0:9c:ee:70:1f:d0:7e:28:ca:25:
         57:2a:7d:d5:fa:6d:8a:59:95:cf:39:e9:fc:a7:4c:ce:ea:e5:
         06:a0:e3:94:b0:ad:f1:e5:b3:67:45:93:98:98:5c:d2:75:9f:
         81:dc:21:94:a0:f9:0d:e5:1e:ea:d9:a9:6a:16:4a:de:5b:37:
         8f:5f:c5:eb:61:6e:71:cc:09:8a:87:a6:92:bc:74:12:a0:a6:
         d3:6b:dc:f1:05:3f:af:b3:80:10:48:1e:9e:69:9a:93:ec:ab:
         2b:3e:0c:57:72:ed:77:33:be:47:41:7b:fc:e3:0e:6d:ea:40:
         13:5a:69:09:a3:f8:dc:d8:7a:a8:dc:4e:f1:4c:5f:06:39:1f:
         c6:71:84:92:9f:55:89:c1:bd:e8:74:a9:94:af:cb:dc:21:d8:
         1c:bb:ca:cd
-----BEGIN CERTIFICATE-----
MIIDfjCCAmagAwIBAgIBATANBgkqhkiG9w0BAQUFADBQMQswCQYDVQQGEwJVUzEP
MA0GA1UECgwGR29vZ2xlMRMwEQYDVQQLDApFbnRlcnByaXNlMRswGQYDVQQDDBJF
bnRlcnByaXNlIFJvb3QgQ0EwHhcNMjAwNDI1MjIwNDQxWhcNMzAwNDI1MjIwNDQx
WjBQMQswCQYDVQQGEwJVUzEPMA0GA1UECgwGR29vZ2xlMRMwEQYDVQQLDApFbnRl
cnByaXNlMRswGQYDVQQDDBJFbnRlcnByaXNlIFJvb3QgQ0EwggEiMA0GCSqGSIb3
DQEBAQUAA4IBDwAwggEKAoIBAQDxuasMnn/6NdpXZk9FnWE109YIUDXdPyN7Qiq1
mX54dBzoC/vZ1mlLyATGe9+DF9cgRa1apQAlid4cUsazo1Tropivf+y/gt9/6mXO
X0zEAZgwnw4VU6NXAVpyzMFiV8kFO18lzUlXdt92SGRiS6Bpk0oxuNZBYKx8SUDY
U7veKF2Gz9GcF5MXUQ5VxbUPqvFcuKGR4DRFAYUQWhB+c2XWr3Z7ibap5HxSRFJl
TZnE7GdeowwzV8/k2bmRWTznhJrGbnXRUykBF+Jhs29BRfqlKroJqL8MZ4VS9j+J
fQRIxYkG4JxfSOuL3mELJQUvZfZADMb60dPrMqJQeItBDndJAgMBAAGjYzBhMA4G
A1UdDwEB/wQEAwIBBjAPBgNVHRMBAf8EBTADAQH/MB0GA1UdDgQWBBSaVNYZIVg6
RrbUrgV+gHD0OM8oDDAfBgNVHSMEGDAWgBSaVNYZIVg6RrbUrgV+gHD0OM8oDDAN
BgkqhkiG9w0BAQUFAAOCAQEAJHWSDi4Ku1L2h1L3Xz3EvDfARTBkBpMkTylQQ/yW
Y14CNso7cpZMnEmHhpscZHXzfFIKQgQXhSV4UeF1qSsVau5n37Kpf93XV/i8zL33
EAm/1HwrMCfVdBLx8pAj6GmuigPAnO5wH9B+KMolVyp91fptilmVzznp/KdMzurl
BqDjlLCt8eWzZ0WTmJhc0nWfgdwhlKD5DeUe6tmpahZK3ls3j1/F62FuccwJioem
krx0EqCm02vc8QU/r7OAEEgenmmak+yrKz4MV3LtdzO+R0F7/OMObepAE1ppCaP4
3Nh6qNxO8UxfBjkfxnGEkp9VicG96HSplK/L3CHYHLvKzQ==
-----END CERTIFICATE-----
